; ModuleID = '36/1655.c'
source_filename = "36/1655.c"
target datalayout = "e-m:e-p270:32:32-p271:32:32-p272:64:64-i64:64-f80:128-n8:16:32:64-S128"
target triple = "x86_64-pc-linux-gnu"

@.str = private unnamed_addr constant [3 x i8] c"%s\00", align 1
@.str.1 = private unnamed_addr constant [3 x i8] c"NO\00", align 1
@.str.2 = private unnamed_addr constant [4 x i8] c"YES\00", align 1

; Function Attrs: noinline nounwind uwtable
define dso_local i32 @main() #0 {
  %1 = alloca i32, align 4
  %2 = alloca [100 x i8], align 16
  %3 = alloca [100 x i8], align 16
  %4 = alloca i8, align 1
  %5 = alloca i32, align 4
  %6 = alloca i32, align 4
  %7 = alloca i32, align 4
  %8 = alloca i32, align 4
  store i32 0, i32* %1, align 4
  %9 = bitcast [100 x i8]* %2 to i8*
  call void @llvm.memset.p0i8.i64(i8* align 16 %9, i8 0, i64 100, i1 false)
  %10 = bitcast [100 x i8]* %3 to i8*
  call void @llvm.memset.p0i8.i64(i8* align 16 %10, i8 0, i64 100, i1 false)
  store i32 0, i32* %5, align 4
  %11 = getelementptr inbounds [100 x i8], [100 x i8]* %2, i64 0, i64 0
  %12 = call i32 (i8*, ...) @__isoc99_scanf(i8* getelementptr inbounds ([3 x i8], [3 x i8]* @.str, i64 0, i64 0), i8* %11)
  %13 = getelementptr inbounds [100 x i8], [100 x i8]* %3, i64 0, i64 0
  %14 = call i32 (i8*, ...) @__isoc99_scanf(i8* getelementptr inbounds ([3 x i8], [3 x i8]* @.str, i64 0, i64 0), i8* %13)
  %15 = getelementptr inbounds [100 x i8], [100 x i8]* %2, i64 0, i64 0
  %16 = call i64 @strlen(i8* %15) #4
  %17 = trunc i64 %16 to i32
  store i32 %17, i32* %7, align 4
  %18 = getelementptr inbounds [100 x i8], [100 x i8]* %3, i64 0, i64 0
  %19 = call i64 @strlen(i8* %18) #4
  %20 = trunc i64 %19 to i32
  store i32 %20, i32* %8, align 4
  %21 = load i32, i32* %7, align 4
  %22 = load i32, i32* %8, align 4
  %23 = icmp ne i32 %21, %22
  br i1 %23, label %24, label %26

24:                                               ; preds = %0
  %25 = call i32 (i8*, ...) @printf(i8* getelementptr inbounds ([3 x i8], [3 x i8]* @.str.1, i64 0, i64 0))
  store i32 0, i32* %1, align 4
  br label %80

26:                                               ; preds = %0
  store i32 0, i32* %5, align 4
  br label %27

27:                                               ; preds = %57, %26
  %28 = load i32, i32* %5, align 4
  %29 = load i32, i32* %7, align 4
  %30 = icmp slt i32 %28, %29
  br i1 %30, label %31, label %60

31:                                               ; preds = %27
  store i32 0, i32* %6, align 4
  br label %32

32:                                               ; preds = %53, %31
  %33 = load i32, i32* %6, align 4
  %34 = load i32, i32* %7, align 4
  %35 = icmp slt i32 %33, %34
  br i1 %35, label %36, label %56

36:                                               ; preds = %32
  %37 = load i32, i32* %5, align 4
  %38 = sext i32 %37 to i64
  %39 = getelementptr inbounds [100 x i8], [100 x i8]* %2, i64 0, i64 %38
  %40 = load i8, i8* %39, align 1
  %41 = sext i8 %40 to i32
  %42 = load i32, i32* %6, align 4
  %43 = sext i32 %42 to i64
  %44 = getelementptr inbounds [100 x i8], [100 x i8]* %3, i64 0, i64 %43
  %45 = load i8, i8* %44, align 1
  %46 = sext i8 %45 to i32
  %47 = icmp eq i32 %41, %46
  br i1 %47, label %48, label %52

48:                                               ; preds = %36
  %49 = load i32, i32* %6, align 4
  %50 = sext i32 %49 to i64
  %51 = getelementptr inbounds [100 x i8], [100 x i8]* %3, i64 0, i64 %50
  store i8 0, i8* %51, align 1
  br label %56

52:                                               ; preds = %36
  br label %53

53:                                               ; preds = %52
  %54 = load i32, i32* %6, align 4
  %55 = add nsw i32 %54, 1
  store i32 %55, i32* %6, align 4
  br label %32

56:                                               ; preds = %48, %32
  br label %57

57:                                               ; preds = %56
  %58 = load i32, i32* %5, align 4
  %59 = add nsw i32 %58, 1
  store i32 %59, i32* %5, align 4
  br label %27

60:                                               ; preds = %27
  store i32 0, i32* %5, align 4
  br label %61

61:                                               ; preds = %75, %60
  %62 = load i32, i32* %5, align 4
  %63 = load i32, i32* %7, align 4
  %64 = icmp slt i32 %62, %63
  br i1 %64, label %65, label %78

65:                                               ; preds = %61
  %66 = load i32, i32* %5, align 4
  %67 = sext i32 %66 to i64
  %68 = getelementptr inbounds [100 x i8], [100 x i8]* %3, i64 0, i64 %67
  %69 = load i8, i8* %68, align 1
  %70 = sext i8 %69 to i32
  %71 = icmp ne i32 %70, 0
  br i1 %71, label %72, label %74

72:                                               ; preds = %65
  %73 = call i32 (i8*, ...) @printf(i8* getelementptr inbounds ([3 x i8], [3 x i8]* @.str.1, i64 0, i64 0))
  store i32 0, i32* %1, align 4
  br label %80

74:                                               ; preds = %65
  br label %75

75:                                               ; preds = %74
  %76 = load i32, i32* %5, align 4
  %77 = add nsw i32 %76, 1
  store i32 %77, i32* %5, align 4
  br label %61

78:                                               ; preds = %61
  %79 = call i32 (i8*, ...) @printf(i8* getelementptr inbounds ([4 x i8], [4 x i8]* @.str.2, i64 0, i64 0))
  store i32 0, i32* %1, align 4
  br label %80

80:                                               ; preds = %78, %72, %24
  %81 = load i32, i32* %1, align 4
  ret i32 %81
}

; Function Attrs: argmemonly nounwind willreturn
declare void @llvm.memset.p0i8.i64(i8* nocapture writeonly, i8, i64, i1 immarg) #1

declare dso_local i32 @__isoc99_scanf(i8*, ...) #2

; Function Attrs: nounwind readonly
declare dso_local i64 @strlen(i8*) #3

declare dso_local i32 @printf(i8*, ...) #2


!llvm.module.flags = !{!0}
!llvm.ident = !{!1}

!0 = !{i32 1, !"wchar_size", i32 4}
!1 = !{!"clang version 10.0.0-4ubuntu1 "}
